c__builtin__
set
p1
((lp2
Vhttp://baike.baidu.com/item/%E6%B3%A2%E7%89%B9%E5%8D%A1%E6%96%AF%C2%B7D%C2%B7%E8%89%BE%E6%96%AF
p3
aVhttp://baike.baidu.com/item/%E5%B1%B1%E6%B2%BB
p4
aVhttp://baike.baidu.com/item/%E9%A9%AC%E5%B0%94%E7%A7%91
p5
aVhttp://baike.baidu.com/item/%E5%86%B0%E5%B1%B1
p6
aVhttp://baike.baidu.com/item/%E6%B2%99%C2%B7%E5%85%8B%E6%B4%9B%E5%85%8B%E8%BE%BE%E5%B0%94
p7
aVhttp://baike.baidu.com/item/%E6%8B%89%E8%A3%98%E5%B7%B4
p8
aVhttp://baike.baidu.com/item/%E6%97%A0%E9%A3%8E%E5%B8%A6
p9
aVhttp://baike.baidu.com/item/%E4%B8%9C%E7%AB%8B%E5%87%BA%E7%89%88%E7%A4%BE
p10
aVhttp://baike.baidu.com/item/%E5%90%A8%E5%8E%8B%E6%9E%9C%E5%AE%9E
p11
aVhttp://baike.baidu.com/item/%E5%BF%83%E8%84%8F%E6%B5%B7%E8%B4%BC%E5%9B%A2
p12
aVhttp://baike.baidu.com/item/%E6%B5%B7%E8%B4%BC%E7%9B%9B%E5%AE%B4
p13
aVhttp://baike.baidu.com/item/%E4%BA%BA%E4%BA%BA%E6%9E%9C%E5%AE%9E
p14
aVhttp://baike.baidu.com/item/%E5%A4%8F%E6%B4%9B%E7%89%B9%C2%B7%E4%BD%A9%E7%BD%97%E6%96%AF%E4%BD%A9%E7%BD%97
p15
aVhttp://baike.baidu.com/item/%E8%88%AA%E6%B5%B7%E7%8E%8B/6616881
p16
aVhttp://baike.baidu.com/item/%E7%A9%BA/3033479
p17
atRp18
.