c__builtin__
set
p1
((lp2
Vhttp://baike.baidu.com/view/404402.htm
p3
aVhttp://baike.baidu.com/view/1765562.htm
p4
aVhttp://baike.baidu.com/view/381469.htm
p5
aVhttp://baike.baidu.com/view/1117503.htm
p6
aVhttp://baike.baidu.com/view/166248.htm
p7
aVhttp://baike.baidu.com/view/593053.htm
p8
aVhttp://baike.baidu.com/view/167593.htm
p9
aVhttp://baike.baidu.com/view/82343.htm
p10
aVhttp://baike.baidu.com/view/1106925.htm
p11
aVhttp://baike.baidu.com/view/2205439.htm
p12
aVhttp://baike.baidu.com/view/87781.htm
p13
aVhttp://baike.baidu.com/view/649188.htm
p14
aVhttp://baike.baidu.com/view/2147419.htm
p15
aVhttp://baike.baidu.com/view/576327.htm
p16
aVhttp://baike.baidu.com/view/576325.htm
p17
aVhttp://baike.baidu.com/view/1182971.htm
p18
aVhttp://baike.baidu.com/view/116613.htm
p19
aVhttp://baike.baidu.com/view/4711876.htm
p20
aVhttp://baike.baidu.com/view/228909.htm
p21
aVhttp://baike.baidu.com/view/492592.htm
p22
aVhttp://baike.baidu.com/view/272926.htm
p23
atRp24
.